(dp0
I1
(lp1
I93
aI145
aI42
asI2
(lp2
I179
asI3
(lp3
I69
asI4
(lp4
I179
asI5
(lp5
I87
asI6
(lp6
I179
aI103
asI7
(lp7
I162
aI34
asI8
(lp8
I40
asI9
(lp9
I136
asI10
(lp10
I125
asI11
(lp11
I179
asI12
(lp12
I69
asI13
(lp13
I93
asI14
(lp14
I47
aI22
asI15
(lp15
I69
asI16
(lp16
I93
aI161
asI17
(lp17
I179
asI18
(lp18
I93
asI19
(lp19
I180
asI20
(lp20
I132
asI21
(lp21
I27
asI22
(lp22
I27
asI23
(lp23
I125
asI24
(lp24
I161
asI25
(lp25
I180
asI26
(lp26
I136
aI42
asI27
(lp27
I207
asI28
(lp28
I85
aI86
asI29
(lp29
I93
aI87
asI30
(lp30
I69
asI31
(lp31
I42
asI32
(lp32
I203
aI93
asI33
(lp33
I179
asI34
(lp34
I37
asI35
(lp35
I179
asI36
(lp36
I93
asI37
(lp37
I93
asI38
(lp38
I37
asI39
(lp39
I219
asI40
(lp40
I111
aI93
asI41
(lp41
I103
aI179
asI42
(lp42
I205
asI43
(lp43
I179
asI44
(lp44
I37
asI45
(lp45
I145
asI46
(lp46
I219
aI215
asI47
(lp47
I7
asI48
(lp48
I179
asI49
(lp49
I86
aI71
aI74
aI104
asI50
(lp50
I130
asI51
(lp51
I37
asI52
(lp52
I37
asI53
(lp53
I87
asI54
(lp54
I179
aI182
asI55
(lp55
I73
asI56
(lp56
I97
aI94
asI57
(lp57
I32
asI58
(lp58
I102
asI59
(lp59
I42
asI60
(lp60
I42
aI116
asI61
(lp61
I129
asI62
(lp62
I100
asI63
(lp63
I100
asI64
(lp64
I42
asI65
(lp65
I37
asI66
(lp66
I179
asI67
(lp67
I144
asI68
(lp68
I203
asI69
(lp69
I179
asI70
(lp70
I103
aI179
asI71
(lp71
I17
asI72
(lp72
I86
asI73
(lp73
I37
asI74
(lp74
I125
asI75
(lp75
I125
asI76
(lp76
I54
asI77
(lp77
I37
asI78
(lp78
I125
asI79
(lp79
I184
aI117
asI80
(lp80
I116
asI81
(lp81
I205
asI82
(lp82
I179
aI213
asI83
(lp83
I42
asI84
(lp84
I205
asI85
(lp85
I183
asI86
(lp86
I139
aI116
asI87
(lp87
I132
asI88
(lp88
I54
aI42
asI89
(lp89
I39
asI90
(lp90
I179
asI91
(lp91
I20
asI92
(lp92
I135
asI93
(lp93
I135
asI94
(lp94
I116
aI137
asI95
(lp95
I179
aI182
asI96
(lp96
I179
asI97
(lp97
I125
asI98
(lp98
I91
asI99
(lp99
I20
asI100
(lp100
I20
asI101
(lp101
I42
as.