(dp0
I1
(lp1
I67
asI2
(lp2
I19
asI3
(lp3
I67
asI4
(lp4
I91
asI5
(lp5
I19
asI6
(lp6
I29
asI7
(lp7
I67
asI8
(lp8
I106
aI104
asI9
(lp9
I103
aI105
asI10
(lp10
I103
aI105
asI11
(lp11
I21
asI12
(lp12
I21
asI13
(lp13
I23
asI14
(lp14
I25
asI15
(lp15
I79
asI16
(lp16
I67
asI17
(lp17
I24
asI18
(lp18
I102
asI19
(lp19
I93
asI20
(lp20
I29
asI21
(lp21
I100
asI22
(lp22
I65
asI23
(lp23
I81
asI24
(lp24
I67
asI25
(lp25
I90
asI26
(lp26
I102
asI27
(lp27
I67
asI28
(lp28
I93
asI29
(lp29
I31
asI30
(lp30
I25
asI31
(lp31
I25
asI32
(lp32
I37
asI33
(lp33
I14
asI34
(lp34
I46
asI35
(lp35
I2
asI36
(lp36
I67
asI37
(lp37
I2
asI38
(lp38
I102
asI39
(lp39
I29
as.