(dp0
I1
(lp1
I54
asI2
(lp2
I53
asI3
(lp3
I42
asI4
(lp4
I53
asI5
(lp5
I58
asI6
(lp6
I78
asI7
(lp7
I107
asI8
(lp8
I12
asI9
(lp9
I12
asI10
(lp10
I17
aI41
asI11
(lp11
I121
asI12
(lp12
I29
aI32
asI13
(lp13
I112
asI14
(lp14
I38
asI15
(lp15
I97
asI16
(lp16
I107
asI17
(lp17
I13
asI18
(lp18
I77
asI19
(lp19
I13
asI20
(lp20
I108
asI21
(lp21
I12
asI22
(lp22
I20
aI59
asI23
(lp23
I12
asI24
(lp24
I107
asI25
(lp25
I13
asI26
(lp26
I13
asI27
(lp27
I117
as.