(dp0
I3
(lp1
I10
asI5
(lp2
I10
aI16
asI8
(lp3
I10
aI15
asI9
(lp4
I10
aI15
asI12
(lp5
I10
aI15
asI13
(lp6
I10
aI15
asI16
(lp7
I10
aI15
asI17
(lp8
I10
aI15
asI20
(lp9
I10
aI15
asI21
(lp10
I10
aI15
asI24
(lp11
I10
aI15
aI16
asI25
(lp12
I10
aI15
aI16
asI28
(lp13
I10
aI15
aI16
asI29
(lp14
I10
aI15
aI16
asI32
(lp15
I10
aI15
aI16
asI33
(lp16
I10
aI15
aI16
asI36
(lp17
I10
aI15
aI16
asI37
(lp18
I10
aI15
aI16
asI40
(lp19
I10
aI15
asI41
(lp20
I10
aI15
asI44
(lp21
I10
aI15
asI45
(lp22
I10
aI15
asI48
(lp23
I10
aI15
asI49
(lp24
I10
aI15
asI52
(lp25
I10
aI15
asI53
(lp26
I10
aI15
asI56
(lp27
I10
aI15
aI16
asI57
(lp28
I10
aI15
aI16
asI60
(lp29
I10
aI15
aI16
asI61
(lp30
I10
aI15
aI16
asI64
(lp31
I10
aI15
aI16
asI65
(lp32
I10
aI15
aI16
asI68
(lp33
I10
aI15
aI16
asI69
(lp34
I10
aI15
aI16
asI72
(lp35
I10
aI15
asI73
(lp36
I10
aI15
asI76
(lp37
I10
aI15
asI77
(lp38
I10
aI15
asI80
(lp39
I10
aI15
asI81
(lp40
I10
aI15
asI84
(lp41
I10
aI15
asI85
(lp42
I10
aI15
asI88
(lp43
I10
aI15
aI16
asI89
(lp44
I10
aI15
aI16
asI92
(lp45
I10
aI15
aI16
asI93
(lp46
I10
aI15
aI16
asI96
(lp47
I10
aI15
aI16
asI97
(lp48
I10
aI15
aI16
asI100
(lp49
I10
aI15
aI16
asI101
(lp50
I10
aI15
aI16
asI104
(lp51
I10
aI15
asI105
(lp52
I10
aI15
asI108
(lp53
I10
aI15
asI109
(lp54
I10
aI15
asI112
(lp55
I10
aI15
asI113
(lp56
I10
aI15
asI116
(lp57
I10
aI15
asI117
(lp58
I10
aI15
asI120
(lp59
I10
aI15
aI16
asI121
(lp60
I10
aI15
aI16
asI124
(lp61
I10
aI15
aI16
asI125
(lp62
I10
aI15
aI16
asI128
(lp63
I10
aI15
aI16
asI129
(lp64
I10
aI15
aI16
asI132
(lp65
I10
aI15
aI16
asI133
(lp66
I10
aI15
aI16
asI136
(lp67
I10
aI15
asI137
(lp68
I10
aI15
asI140
(lp69
I10
aI15
asI141
(lp70
I10
aI15
asI144
(lp71
I10
aI15
asI145
(lp72
I10
aI15
asI148
(lp73
I10
aI15
asI149
(lp74
I10
aI15
asI152
(lp75
I10
aI15
aI16
asI153
(lp76
I10
aI15
aI16
asI156
(lp77
I10
aI15
aI16
asI157
(lp78
I10
aI15
aI16
asI160
(lp79
I10
aI15
aI16
asI161
(lp80
I10
aI15
aI16
asI164
(lp81
I10
aI15
aI16
asI165
(lp82
I10
aI15
aI16
asI168
(lp83
I10
aI15
asI169
(lp84
I10
aI15
asI172
(lp85
I10
aI15
asI173
(lp86
I10
aI15
asI176
(lp87
I10
aI15
asI177
(lp88
I10
aI15
asI180
(lp89
I10
aI15
asI181
(lp90
I10
aI15
asI184
(lp91
I10
aI15
aI16
asI185
(lp92
I10
aI15
aI16
asI188
(lp93
I10
aI15
aI16
asI189
(lp94
I10
aI15
aI16
asI192
(lp95
I10
aI15
aI16
asI193
(lp96
I10
aI15
aI16
asI196
(lp97
I10
aI15
aI16
asI197
(lp98
I10
aI15
aI16
asI200
(lp99
I10
aI15
asI201
(lp100
I10
aI15
asI204
(lp101
I10
aI15
asI205
(lp102
I10
aI15
asI208
(lp103
I10
aI15
asI209
(lp104
I10
aI15
asI212
(lp105
I10
aI15
asI213
(lp106
I10
aI15
asI216
(lp107
I10
aI15
aI16
asI217
(lp108
I10
aI15
aI16
asI220
(lp109
I10
aI15
aI16
asI221
(lp110
I10
aI15
aI16
asI224
(lp111
I10
aI15
aI16
asI225
(lp112
I10
aI15
aI16
asI228
(lp113
I10
aI15
aI16
asI229
(lp114
I10
aI15
aI16
asI232
(lp115
I10
aI15
asI233
(lp116
I10
aI15
asI236
(lp117
I10
aI15
asI237
(lp118
I10
aI15
asI240
(lp119
I10
aI15
asI241
(lp120
I10
aI15
asI244
(lp121
I10
aI15
asI245
(lp122
I10
aI15
asI248
(lp123
I10
aI15
aI16
asI249
(lp124
I10
aI15
aI16
asI252
(lp125
I10
aI15
aI16
asI253
(lp126
I10
aI15
aI16
asI256
(lp127
I10
aI15
aI16
asI257
(lp128
I10
aI15
aI16
asI260
(lp129
I10
aI15
aI16
asI261
(lp130
I10
aI15
aI16
asI264
(lp131
I10
aI15
asI265
(lp132
I10
aI15
asI268
(lp133
I10
aI15
asI269
(lp134
I10
aI15
asI272
(lp135
I10
aI15
asI273
(lp136
I10
aI15
asI276
(lp137
I10
aI15
asI277
(lp138
I10
aI15
asI280
(lp139
I10
aI15
aI16
asI281
(lp140
I10
aI15
aI16
asI284
(lp141
I10
aI15
aI16
asI285
(lp142
I10
aI15
aI16
asI288
(lp143
I10
aI15
aI16
asI289
(lp144
I10
aI15
aI16
asI292
(lp145
I10
aI15
aI16
asI293
(lp146
I10
aI15
aI16
asI296
(lp147
I10
aI15
asI297
(lp148
I10
aI15
asI300
(lp149
I10
aI15
asI301
(lp150
I10
aI15
asI304
(lp151
I10
aI15
asI305
(lp152
I10
aI15
asI308
(lp153
I10
aI15
asI309
(lp154
I10
aI15
asI312
(lp155
I10
aI15
aI16
asI313
(lp156
I10
aI15
aI16
asI316
(lp157
I10
aI15
aI16
asI317
(lp158
I10
aI15
aI16
asI320
(lp159
I10
aI15
aI16
asI321
(lp160
I10
aI15
aI16
asI324
(lp161
I10
aI15
aI16
asI325
(lp162
I10
aI15
aI16
asI328
(lp163
I10
aI15
asI329
(lp164
I10
aI15
asI332
(lp165
I10
aI15
asI333
(lp166
I10
aI15
asI336
(lp167
I10
aI15
asI337
(lp168
I10
aI15
asI340
(lp169
I10
aI15
asI341
(lp170
I10
aI15
asI344
(lp171
I10
aI15
aI16
asI345
(lp172
I10
aI15
aI16
asI348
(lp173
I10
aI15
aI16
asI349
(lp174
I10
aI15
aI16
asI352
(lp175
I10
aI15
aI16
asI353
(lp176
I10
aI15
aI16
asI356
(lp177
I10
aI15
aI16
asI357
(lp178
I10
aI15
aI16
asI360
(lp179
I10
aI15
asI361
(lp180
I10
aI15
asI364
(lp181
I10
aI15
asI365
(lp182
I10
aI15
asI368
(lp183
I10
aI15
asI369
(lp184
I10
aI15
asI372
(lp185
I10
aI15
asI373
(lp186
I10
aI15
asI376
(lp187
I10
aI15
aI16
asI377
(lp188
I10
aI15
aI16
asI380
(lp189
I10
aI15
aI16
asI381
(lp190
I10
aI15
aI16
asI384
(lp191
I10
aI15
aI16
asI385
(lp192
I10
aI15
aI16
asI388
(lp193
I10
aI15
aI16
asI389
(lp194
I10
aI15
aI16
asI392
(lp195
I10
aI15
asI393
(lp196
I10
aI15
asI396
(lp197
I10
aI15
asI397
(lp198
I10
aI15
asI400
(lp199
I10
aI15
asI401
(lp200
I10
aI15
asI404
(lp201
I10
aI15
asI405
(lp202
I10
aI15
asI408
(lp203
I10
aI15
aI16
asI409
(lp204
I10
aI15
aI16
asI412
(lp205
I10
aI15
aI16
asI413
(lp206
I10
aI15
aI16
asI416
(lp207
I10
aI15
aI16
asI417
(lp208
I10
aI15
aI16
asI420
(lp209
I10
aI15
aI16
asI421
(lp210
I10
aI15
aI16
asI424
(lp211
I10
aI15
asI425
(lp212
I10
aI15
asI428
(lp213
I10
aI15
asI429
(lp214
I10
aI15
asI432
(lp215
I10
aI15
asI433
(lp216
I10
aI15
asI436
(lp217
I10
aI15
asI437
(lp218
I10
aI15
asI440
(lp219
I10
aI15
aI16
asI441
(lp220
I10
aI15
aI16
asI444
(lp221
I10
aI15
aI16
asI445
(lp222
I10
aI15
aI16
asI448
(lp223
I10
aI15
aI16
asI449
(lp224
I10
aI15
aI16
asI452
(lp225
I10
aI15
aI16
asI453
(lp226
I10
aI15
aI16
asI456
(lp227
I10
aI15
asI457
(lp228
I10
aI15
asI460
(lp229
I10
aI15
asI461
(lp230
I10
aI15
asI464
(lp231
I10
aI15
asI465
(lp232
I10
aI15
asI468
(lp233
I10
aI15
asI469
(lp234
I10
aI15
asI472
(lp235
I10
aI15
aI16
asI473
(lp236
I10
aI15
aI16
asI476
(lp237
I10
aI15
aI16
asI477
(lp238
I10
aI15
aI16
asI480
(lp239
I10
aI15
aI16
asI481
(lp240
I10
aI15
aI16
asI484
(lp241
I10
aI15
aI16
asI485
(lp242
I10
aI15
aI16
asI488
(lp243
I10
aI15
asI489
(lp244
I10
aI15
asI492
(lp245
I10
aI15
asI493
(lp246
I10
aI15
asI496
(lp247
I10
aI15
asI497
(lp248
I10
aI15
asI500
(lp249
I10
aI15
asI501
(lp250
I10
aI15
asI504
(lp251
I10
aI15
aI16
asI505
(lp252
I10
aI15
aI16
asI508
(lp253
I10
aI15
aI16
asI509
(lp254
I10
aI15
aI16
asI512
(lp255
I10
aI15
aI16
asI513
(lp256
I10
aI15
aI16
asI516
(lp257
I10
aI15
aI16
asI517
(lp258
I10
aI15
aI16
asI520
(lp259
I10
aI15
asI521
(lp260
I10
aI15
asI524
(lp261
I10
aI15
asI525
(lp262
I10
aI15
asI528
(lp263
I10
aI15
asI529
(lp264
I10
aI15
asI532
(lp265
I10
aI15
asI533
(lp266
I10
aI15
asI536
(lp267
I10
aI15
aI16
asI537
(lp268
I10
aI15
aI16
asI540
(lp269
I10
aI15
aI16
asI541
(lp270
I10
aI15
aI16
asI544
(lp271
I10
aI15
aI16
asI545
(lp272
I10
aI15
aI16
asI548
(lp273
I10
aI15
aI16
asI549
(lp274
I10
aI15
aI16
asI552
(lp275
I10
aI15
asI553
(lp276
I10
aI15
asI556
(lp277
I10
aI15
asI557
(lp278
I10
aI15
asI560
(lp279
I10
aI15
asI561
(lp280
I10
aI15
asI564
(lp281
I10
aI15
asI565
(lp282
I10
aI15
asI568
(lp283
I10
aI15
aI16
asI569
(lp284
I10
aI15
aI16
asI572
(lp285
I10
aI15
aI16
asI573
(lp286
I10
aI15
aI16
asI576
(lp287
I10
aI15
aI16
asI577
(lp288
I10
aI15
aI16
asI580
(lp289
I10
aI15
aI16
asI581
(lp290
I10
aI15
aI16
asI584
(lp291
I10
aI15
asI585
(lp292
I10
aI15
asI588
(lp293
I10
aI15
asI589
(lp294
I10
aI15
asI592
(lp295
I10
aI15
asI593
(lp296
I10
aI15
asI596
(lp297
I10
aI15
asI597
(lp298
I10
aI15
asI600
(lp299
I10
aI15
aI16
asI601
(lp300
I10
aI15
aI16
asI604
(lp301
I10
aI15
aI16
asI605
(lp302
I10
aI15
aI16
asI608
(lp303
I10
aI15
aI16
asI609
(lp304
I10
aI15
aI16
asI612
(lp305
I10
aI15
aI16
asI613
(lp306
I10
aI15
aI16
asI616
(lp307
I10
aI15
asI617
(lp308
I10
aI15
asI620
(lp309
I10
aI15
asI621
(lp310
I10
aI15
asI624
(lp311
I10
aI15
asI625
(lp312
I10
aI15
asI628
(lp313
I10
aI15
asI629
(lp314
I10
aI15
asI632
(lp315
I10
aI15
aI16
asI633
(lp316
I10
aI15
aI16
asI636
(lp317
I10
aI15
aI16
asI637
(lp318
I10
aI15
aI16
asI640
(lp319
I10
aI15
aI16
asI641
(lp320
I10
aI15
aI16
asI644
(lp321
I10
aI15
aI16
asI645
(lp322
I10
aI15
aI16
asI648
(lp323
I10
aI15
asI649
(lp324
I10
aI15
asI652
(lp325
I10
aI15
asI653
(lp326
I10
aI15
asI656
(lp327
I10
aI15
asI657
(lp328
I10
aI15
asI660
(lp329
I10
aI15
asI661
(lp330
I10
aI15
asI664
(lp331
I10
aI15
aI16
asI665
(lp332
I10
aI15
aI16
asI668
(lp333
I10
aI15
aI16
asI669
(lp334
I10
aI15
aI16
asI672
(lp335
I2
aI5
aI8
aI10
aI13
aI15
aI16
aI19
asI673
(lp336
I2
aI5
aI8
aI10
aI13
aI15
aI16
aI19
asI676
(lp337
I10
aI15
aI16
asI677
(lp338
I10
aI15
aI16
asI680
(lp339
I10
aI15
asI681
(lp340
I10
aI15
asI684
(lp341
I10
aI15
asI685
(lp342
I10
aI15
asI688
(lp343
I10
aI15
asI689
(lp344
I10
aI15
asI692
(lp345
I10
aI15
asI693
(lp346
I10
aI15
asI696
(lp347
I10
aI15
aI16
asI697
(lp348
I10
aI15
aI16
asI700
(lp349
I10
aI15
aI16
asI701
(lp350
I10
aI15
aI16
asI704
(lp351
I10
aI15
aI16
asI705
(lp352
I10
aI15
aI16
asI708
(lp353
I10
aI15
aI16
asI709
(lp354
I10
aI15
aI16
asI712
(lp355
I10
aI15
asI713
(lp356
I10
aI15
asI716
(lp357
I10
aI15
asI717
(lp358
I10
aI15
asI720
(lp359
I10
aI15
asI721
(lp360
I10
aI15
asI724
(lp361
I10
aI15
asI725
(lp362
I10
aI15
asI728
(lp363
I10
aI15
aI16
asI729
(lp364
I10
aI15
aI16
asI732
(lp365
I10
aI15
aI16
asI733
(lp366
I10
aI15
aI16
asI736
(lp367
I2
aI5
aI8
aI10
aI13
aI15
aI16
aI19
asI737
(lp368
I2
aI5
aI8
aI10
aI13
aI15
aI16
aI19
asI740
(lp369
I10
aI15
aI16
asI741
(lp370
I10
aI15
aI16
asI744
(lp371
I10
aI15
asI745
(lp372
I10
aI15
asI748
(lp373
I10
aI15
asI749
(lp374
I10
aI15
asI752
(lp375
I10
aI15
asI753
(lp376
I10
aI15
asI756
(lp377
I10
aI15
asI757
(lp378
I10
aI15
asI760
(lp379
I10
aI15
aI16
asI761
(lp380
I10
aI15
aI16
asI764
(lp381
I10
aI15
aI16
asI765
(lp382
I10
aI15
aI16
asI768
(lp383
I10
aI15
aI16
asI769
(lp384
I10
aI15
aI16
asI772
(lp385
I10
aI15
aI16
asI773
(lp386
I10
aI15
aI16
asI781
(lp387
I10
aI13
asI782
(lp388
I10
asI783
(lp389
I10
aI13
asI785
(lp390
I10
aI13
asI786
(lp391
I10
aI13
asI787
(lp392
I10
aI13
asI788
(lp393
I10
asI789
(lp394
I10
aI15
asI790
(lp395
I10
aI15
asI791
(lp396
I1
aI2
aI3
aI4
aI5
aI6
aI7
aI8
aI9
aI10
aI11
aI12
aI13
aI14
aI15
aI16
aI17
aI18
aI19
asI792
(lp397
I10
aI13
aI15
asI793
(lp398
I10
aI13
asI794
(lp399
I10
aI13
asI795
(lp400
I10
aI15
asI796
(lp401
I10
aI15
asI797
(lp402
I10
aI15
asI798
(lp403
I10
aI15
asI803
(lp404
I10
asI807
(lp405
I10
asI815
(lp406
I5
aI10
aI12
aI13
aI15
asI817
(lp407
I5
aI10
aI12
aI15
asI819
(lp408
I10
aI13
asI828
(lp409
I10
asI830
(lp410
I10
asI832
(lp411
I10
aI15
asI833
(lp412
I10
aI15
asI840
(lp413
I10
aI13
asI841
(lp414
I10
aI13
asI845
(lp415
I10
aI16
asI846
(lp416
I10
aI16
asI847
(lp417
I10
aI13
aI16
asI850
(lp418
I10
aI13
asI851
(lp419
I10
aI15
asI852
(lp420
I10
aI15
asI853
(lp421
I10
aI13
asI856
(lp422
I10
aI13
asI857
(lp423
I10
aI13
asI858
(lp424
I10
aI13
asI859
(lp425
I10
aI13
asI860
(lp426
I10
aI13
asI861
(lp427
I10
aI13
asI862
(lp428
I10
aI13
asI864
(lp429
I10
aI13
asI870
(lp430
I16
asI872
(lp431
I10
aI13
asI874
(lp432
I10
aI13
as.