(dp0
I6
(lp1
I2
aI3
aI5
asI7
(lp2
I2
aI3
aI5
asI8
(lp3
I2
aI3
aI5
asI9
(lp4
I2
aI3
aI5
asI10
(lp5
I2
aI3
aI5
asI16
(lp6
I2
aI3
aI5
asI27
(lp7
I2
aI3
aI5
asI28
(lp8
I1
aI2
aI3
asI29
(lp9
I2
aI3
asI30
(lp10
I2
aI3
asI31
(lp11
I2
aI3
aI5
asI33
(lp12
I2
aI3
asI34
(lp13
I2
aI3
aI5
asI35
(lp14
I2
aI3
aI5
aI6
asI38
(lp15
I2
aI3
aI5
asI39
(lp16
I2
aI3
aI5
asI40
(lp17
I2
aI3
aI5
asI113
(lp18
I2
aI3
asI114
(lp19
I2
aI3
asI115
(lp20
I2
aI3
asI116
(lp21
I2
aI3
asI117
(lp22
I2
aI3
asI118
(lp23
I2
aI3
asI119
(lp24
I2
aI3
asI120
(lp25
I2
aI3
asI121
(lp26
I2
aI3
aI5
asI122
(lp27
I2
aI3
aI5
asI123
(lp28
I2
aI3
aI5
asI124
(lp29
I2
aI3
aI5
asI125
(lp30
I2
aI3
aI5
asI126
(lp31
I2
aI3
aI5
asI127
(lp32
I2
aI3
aI5
asI128
(lp33
I2
aI3
aI5
asI129
(lp34
I2
aI3
aI5
asI130
(lp35
I2
aI3
aI5
asI131
(lp36
I2
aI3
aI5
asI132
(lp37
I2
aI3
aI5
asI133
(lp38
I2
aI3
asI134
(lp39
I2
aI3
asI135
(lp40
I2
aI3
asI136
(lp41
I2
aI3
asI141
(lp42
I2
aI3
aI5
asI142
(lp43
I2
aI3
aI5
asI143
(lp44
I2
aI3
aI5
asI144
(lp45
I2
aI3
aI5
asI145
(lp46
I2
aI3
aI5
asI146
(lp47
I2
aI3
aI5
asI147
(lp48
I2
aI3
aI5
asI148
(lp49
I2
aI3
aI5
asI149
(lp50
I1
aI2
aI3
asI150
(lp51
I1
aI2
aI3
asI151
(lp52
I1
aI2
aI3
asI152
(lp53
I1
aI2
aI3
asI153
(lp54
I2
aI3
asI154
(lp55
I1
aI2
aI3
asI155
(lp56
I2
aI3
asI156
(lp57
I1
aI2
aI3
asI157
(lp58
I2
aI3
asI158
(lp59
I2
aI3
asI159
(lp60
I2
aI3
asI160
(lp61
I2
aI3
asI161
(lp62
I1
aI2
aI3
asI162
(lp63
I2
aI3
asI163
(lp64
I1
aI2
aI3
asI164
(lp65
I2
aI3
asI165
(lp66
I2
aI3
aI5
asI166
(lp67
I2
aI3
aI5
asI167
(lp68
I2
aI3
aI5
asI168
(lp69
I2
aI3
aI5
asI173
(lp70
I1
aI2
aI3
aI4
aI5
asI174
(lp71
I1
aI2
aI3
aI4
aI5
asI175
(lp72
I1
aI2
aI3
aI4
aI5
asI176
(lp73
I1
aI2
aI3
aI4
aI5
asI177
(lp74
I2
aI3
aI5
asI178
(lp75
I2
aI3
aI5
asI179
(lp76
I2
aI3
aI5
asI180
(lp77
I2
aI3
aI5
asI181
(lp78
I1
aI2
aI3
aI5
asI182
(lp79
I1
aI2
aI3
aI5
asI183
(lp80
I1
aI2
aI3
aI5
asI184
(lp81
I1
aI2
aI3
aI5
asI185
(lp82
I1
aI2
aI3
asI186
(lp83
I1
aI2
aI3
asI187
(lp84
I1
aI2
aI3
asI188
(lp85
I1
aI2
aI3
asI189
(lp86
I1
aI2
aI3
asI190
(lp87
I1
aI2
aI3
asI191
(lp88
I2
aI3
asI192
(lp89
I1
aI2
aI3
asI193
(lp90
I2
aI3
asI194
(lp91
I2
aI3
asI195
(lp92
I2
aI3
asI196
(lp93
I2
aI3
asI197
(lp94
I1
aI2
aI3
asI198
(lp95
I2
aI3
asI199
(lp96
I1
aI2
aI3
asI200
(lp97
I2
aI3
aI5
asI201
(lp98
I2
aI3
aI5
asI203
(lp99
I2
aI3
aI5
asI205
(lp100
I1
aI2
aI3
aI5
asI211
(lp101
I2
aI3
aI5
asI212
(lp102
I2
aI3
aI5
asI213
(lp103
I2
aI3
aI5
asI214
(lp104
I2
aI3
aI5
asI215
(lp105
I2
aI3
aI5
asI216
(lp106
I2
aI3
aI5
asI217
(lp107
I2
aI3
aI5
asI218
(lp108
I2
aI3
aI5
asI219
(lp109
I2
aI3
aI5
asI220
(lp110
I2
aI3
aI5
asI250
(lp111
I2
aI3
aI5
asI251
(lp112
I2
aI3
aI5
asI252
(lp113
I2
aI3
aI5
asI289
(lp114
I1
aI2
aI3
aI4
aI5
asI290
(lp115
I1
aI2
aI3
aI4
aI5
asI291
(lp116
I1
aI2
aI3
aI4
aI5
asI292
(lp117
I1
aI2
aI3
aI4
aI5
asI293
(lp118
I2
aI3
aI5
asI294
(lp119
I2
aI3
aI5
asI297
(lp120
I2
aI3
asI298
(lp121
I2
aI3
asI299
(lp122
I2
aI3
asI300
(lp123
I2
aI3
asI301
(lp124
I2
aI3
aI5
asI302
(lp125
I5
asI304
(lp126
I2
aI3
aI5
asI307
(lp127
I2
aI3
asI308
(lp128
I2
aI3
asI309
(lp129
I1
aI2
aI3
asI310
(lp130
I1
aI2
aI3
asI311
(lp131
I2
aI3
asI312
(lp132
I2
aI3
asI313
(lp133
I1
aI2
aI3
asI314
(lp134
I2
aI3
asI315
(lp135
I2
aI3
aI5
asI316
(lp136
I2
aI3
aI5
asI319
(lp137
I1
aI2
aI3
aI4
aI5
asI320
(lp138
I1
aI2
aI3
aI4
aI5
asI321
(lp139
I2
aI3
aI5
asI322
(lp140
I2
aI3
aI5
aI6
asI323
(lp141
I1
aI2
aI3
aI5
asI324
(lp142
I1
aI2
aI3
aI5
asI325
(lp143
I2
aI3
asI326
(lp144
I2
aI3
asI327
(lp145
I1
aI2
aI3
asI328
(lp146
I1
aI2
aI3
asI329
(lp147
I2
aI3
aI5
asI330
(lp148
I2
aI3
asI331
(lp149
I1
aI2
aI3
asI332
(lp150
I2
aI3
asI333
(lp151
I2
aI3
aI5
asI334
(lp152
I2
aI3
aI5
asI337
(lp153
I1
aI2
aI3
aI4
aI5
asI338
(lp154
I1
aI2
aI3
aI4
aI5
asI339
(lp155
I2
aI3
aI5
asI340
(lp156
I2
aI3
aI5
aI6
asI341
(lp157
I2
aI3
aI5
asI342
(lp158
I2
aI3
aI5
asI361
(lp159
I2
aI3
asI362
(lp160
I1
aI2
aI3
aI5
asI363
(lp161
I1
aI2
aI3
aI5
asI366
(lp162
I2
aI3
aI5
asI367
(lp163
I2
aI3
aI5
asI368
(lp164
I2
aI3
aI5
asI369
(lp165
I2
aI3
aI5
asI370
(lp166
I2
aI3
aI5
as.