(dp0
I2
(lp1
I10
aI12
aI15
aI17
asI515
(lp2
I12
asI4
(lp3
I10
aI12
asI5
(lp4
I10
asI6
(lp5
I10
aI12
asI7
(lp6
I10
asI8
(lp7
I10
asI9
(lp8
I8
aI10
asI10
(lp9
I8
aI10
asI11
(lp10
I10
asI524
(lp11
I10
asI13
(lp12
I10
asI14
(lp13
I10
asI15
(lp14
I9
asI16
(lp15
I6
aI11
aI14
asI563
(lp16
I10
aI12
asI19
(lp17
I6
aI11
aI14
asI532
(lp18
I10
asI533
(lp19
I10
aI12
asI534
(lp20
I8
aI10
aI12
asI23
(lp21
I12
asI24
(lp22
I12
asI516
(lp23
I10
asI540
(lp24
I10
asI541
(lp25
I10
asI542
(lp26
I10
asI517
(lp27
I10
asI545
(lp28
I10
asI546
(lp29
I10
aI12
asI547
(lp30
I10
asI548
(lp31
I12
asI37
(lp32
I8
asI519
(lp33
I10
asI556
(lp34
I10
aI12
aI15
aI17
asI557
(lp35
I10
aI12
aI15
aI17
asI46
(lp36
I6
aI11
aI14
asI47
(lp37
I6
aI11
aI14
asI48
(lp38
I6
aI11
aI14
asI49
(lp39
I6
aI11
aI14
asI50
(lp40
I6
aI11
aI12
aI14
asI51
(lp41
I6
aI11
aI14
asI52
(lp42
I6
aI11
aI14
asI53
(lp43
I6
aI11
aI14
asI54
(lp44
I6
aI11
aI14
asI55
(lp45
I6
aI11
aI12
aI14
asI56
(lp46
I6
aI11
aI14
asI57
(lp47
I6
aI11
aI14
asI58
(lp48
I6
aI11
aI14
asI59
(lp49
I6
aI11
aI14
asI60
(lp50
I6
aI11
aI12
aI14
asI61
(lp51
I6
aI11
aI14
asI62
(lp52
I6
aI11
aI14
asI63
(lp53
I6
aI11
aI14
asI64
(lp54
I6
aI11
aI14
asI65
(lp55
I6
aI11
aI12
aI14
asI578
(lp56
I12
asI523
(lp57
I10
asI580
(lp58
I12
asI581
(lp59
I12
asI70
(lp60
I12
asI583
(lp61
I12
asI584
(lp62
I12
asI585
(lp63
I12
asI586
(lp64
I12
asI75
(lp65
I12
asI582
(lp66
I12
asI589
(lp67
I12
asI590
(lp68
I12
asI525
(lp69
I10
aI12
asI80
(lp70
I12
asI593
(lp71
I12
asI594
(lp72
I12
asI595
(lp73
I12
asI596
(lp74
I12
asI526
(lp75
I10
aI12
asI598
(lp76
I12
asI599
(lp77
I12
asI600
(lp78
I12
asI601
(lp79
I12
asI90
(lp80
I12
asI527
(lp81
I12
asI604
(lp82
I12
asI605
(lp83
I12
asI606
(lp84
I12
asI95
(lp85
I12
asI608
(lp86
I12
asI528
(lp87
I10
asI610
(lp88
I12
asI611
(lp89
I12
asI100
(lp90
I12
asI529
(lp91
I12
asI614
(lp92
I12
asI17
(lp93
I12
asI616
(lp94
I12
asI105
(lp95
I12
asI618
(lp96
I12
asI615
(lp97
I12
asI620
(lp98
I12
asI621
(lp99
I12
asI110
(lp100
I12
asI623
(lp101
I12
asI624
(lp102
I12
asI625
(lp103
I12
asI626
(lp104
I12
asI531
(lp105
I10
asI628
(lp106
I12
asI629
(lp107
I12
asI630
(lp108
I12
asI617
(lp109
I12
asI120
(lp110
I12
asI633
(lp111
I12
asI634
(lp112
I12
asI635
(lp113
I12
asI636
(lp114
I12
asI125
(lp115
I12
asI638
(lp116
I12
asI639
(lp117
I12
asI640
(lp118
I12
asI641
(lp119
I12
asI130
(lp120
I12
asI619
(lp121
I12
asI644
(lp122
I12
asI22
(lp123
I10
asI646
(lp124
I12
asI135
(lp125
I12
asI648
(lp126
I12
asI649
(lp127
I12
asI650
(lp128
I12
asI651
(lp129
I12
asI140
(lp130
I12
asI653
(lp131
I12
asI654
(lp132
I12
asI655
(lp133
I12
asI656
(lp134
I12
asI145
(lp135
I12
asI658
(lp136
I12
asI659
(lp137
I12
asI660
(lp138
I12
asI622
(lp139
I12
asI150
(lp140
I12
asI25
(lp141
I12
asI664
(lp142
I12
asI665
(lp143
I12
asI666
(lp144
I12
asI155
(lp145
I12
asI668
(lp146
I12
asI669
(lp147
I12
asI670
(lp148
I12
asI160
(lp149
I12
asI295
(lp150
I12
asI602
(lp151
I12
asI165
(lp152
I12
asI170
(lp153
I12
asI171
(lp154
I6
aI11
aI14
asI172
(lp155
I6
aI11
aI14
asI173
(lp156
I6
aI11
aI14
asI174
(lp157
I6
aI11
aI14
asI175
(lp158
I6
aI11
aI12
aI14
asI176
(lp159
I6
aI11
aI14
asI177
(lp160
I6
aI11
aI14
asI178
(lp161
I6
aI11
aI14
asI179
(lp162
I6
aI11
aI14
asI180
(lp163
I6
aI11
aI12
aI14
asI181
(lp164
I6
aI11
aI14
asI182
(lp165
I6
aI11
aI14
asI183
(lp166
I6
aI11
aI14
asI184
(lp167
I6
aI11
aI14
asI185
(lp168
I6
aI11
aI12
aI14
asI186
(lp169
I6
aI11
aI14
asI187
(lp170
I6
aI11
aI14
asI188
(lp171
I6
aI11
aI14
asI189
(lp172
I6
aI11
aI14
asI190
(lp173
I6
aI11
aI12
aI14
asI191
(lp174
I6
aI11
aI14
asI192
(lp175
I6
aI11
aI14
asI193
(lp176
I6
aI11
aI14
asI194
(lp177
I6
aI11
aI14
asI195
(lp178
I6
aI11
aI12
aI14
asI200
(lp179
I12
asI518
(lp180
I10
asI631
(lp181
I12
asI205
(lp182
I12
asI632
(lp183
I12
asI210
(lp184
I12
asI35
(lp185
I12
asI215
(lp186
I12
asI220
(lp187
I12
asI549
(lp188
I10
asI225
(lp189
I12
asI230
(lp190
I12
asI235
(lp191
I12
asI564
(lp192
I9
asI637
(lp193
I12
asI240
(lp194
I12
asI245
(lp195
I12
asI250
(lp196
I12
asI663
(lp197
I12
asI255
(lp198
I12
asI571
(lp199
I12
asI555
(lp200
I10
aI12
aI15
aI17
asI260
(lp201
I12
asI520
(lp202
I10
aI12
asI44
(lp203
I12
asI266
(lp204
I10
asI267
(lp205
I10
asI268
(lp206
I10
asI269
(lp207
I10
asI270
(lp208
I10
aI12
asI271
(lp209
I10
asI272
(lp210
I10
asI273
(lp211
I10
asI274
(lp212
I10
asI275
(lp213
I10
aI12
asI612
(lp214
I12
asI280
(lp215
I12
asI265
(lp216
I12
asI285
(lp217
I12
asI645
(lp218
I12
asI560
(lp219
I12
asI290
(lp220
I12
asI521
(lp221
I10
asI561
(lp222
I10
aI12
asI296
(lp223
I6
aI11
aI14
asI297
(lp224
I6
aI11
aI14
asI298
(lp225
I6
aI11
aI14
asI299
(lp226
I6
aI11
aI14
asI300
(lp227
I6
aI11
aI12
aI14
asI301
(lp228
I6
aI11
aI14
asI302
(lp229
I6
aI11
aI14
asI303
(lp230
I6
aI11
aI14
asI304
(lp231
I6
aI11
aI14
asI305
(lp232
I6
aI11
aI12
aI14
asI306
(lp233
I6
aI11
aI14
asI307
(lp234
I6
aI11
aI14
asI308
(lp235
I6
aI11
aI14
asI309
(lp236
I6
aI11
aI14
asI310
(lp237
I6
aI11
aI12
aI14
asI311
(lp238
I6
aI11
aI14
asI312
(lp239
I6
aI11
aI14
asI313
(lp240
I6
aI11
aI14
asI314
(lp241
I6
aI11
aI14
asI315
(lp242
I6
aI11
aI12
aI14
asI316
(lp243
I12
asI565
(lp244
I8
aI10
aI12
asI320
(lp245
I12
asI522
(lp246
I10
asI566
(lp247
I10
aI12
asI652
(lp248
I12
asI330
(lp249
I12
asI567
(lp250
I8
aI10
asI45
(lp251
I12
asI335
(lp252
I12
asI568
(lp253
I8
aI12
asI340
(lp254
I12
asI642
(lp255
I12
asI345
(lp256
I12
asI591
(lp257
I12
asI350
(lp258
I12
asI627
(lp259
I12
asI355
(lp260
I12
asI597
(lp261
I12
asI662
(lp262
I12
asI657
(lp263
I12
asI360
(lp264
I12
asI365
(lp265
I12
asI607
(lp266
I12
asI370
(lp267
I12
asI643
(lp268
I12
asI375
(lp269
I12
asI380
(lp270
I12
asI609
(lp271
I12
asI661
(lp272
I12
asI385
(lp273
I12
asI115
(lp274
I12
asI415
(lp275
I12
asI390
(lp276
I12
asI577
(lp277
I12
asI30
(lp278
I12
asI395
(lp279
I12
asI400
(lp280
I12
asI579
(lp281
I12
asI405
(lp282
I12
asI410
(lp283
I12
asI325
(lp284
I12
asI667
(lp285
I12
asI420
(lp286
I12
asI421
(lp287
I6
aI11
aI14
asI422
(lp288
I6
aI11
aI14
asI423
(lp289
I6
aI11
aI14
asI424
(lp290
I6
aI11
aI14
asI425
(lp291
I6
aI11
aI12
aI14
asI426
(lp292
I6
aI11
aI14
asI427
(lp293
I6
aI11
aI14
asI428
(lp294
I6
aI11
aI14
asI429
(lp295
I6
aI11
aI14
asI430
(lp296
I6
aI11
aI12
aI14
asI431
(lp297
I6
aI11
aI14
asI432
(lp298
I6
aI11
aI14
asI433
(lp299
I6
aI11
aI14
asI434
(lp300
I6
aI11
aI14
asI435
(lp301
I6
aI11
aI12
aI14
asI436
(lp302
I6
aI11
aI14
asI437
(lp303
I6
aI11
aI14
asI438
(lp304
I6
aI11
aI14
asI439
(lp305
I6
aI11
aI14
asI440
(lp306
I6
aI11
aI12
aI14
asI441
(lp307
I6
aI11
aI14
asI442
(lp308
I6
aI11
aI14
asI443
(lp309
I6
aI11
aI14
asI444
(lp310
I6
aI11
aI14
asI445
(lp311
I6
aI11
aI12
aI14
asI450
(lp312
I12
asI587
(lp313
I12
asI455
(lp314
I12
asI588
(lp315
I12
asI603
(lp316
I12
asI460
(lp317
I12
asI465
(lp318
I12
asI613
(lp319
I12
asI470
(lp320
I12
asI475
(lp321
I12
asI480
(lp322
I12
asI592
(lp323
I12
asI485
(lp324
I12
asI490
(lp325
I12
asI647
(lp326
I12
asI495
(lp327
I12
asI562
(lp328
I10
asI500
(lp329
I12
asI505
(lp330
I12
asI510
(lp331
I12
asI85
(lp332
I12
as.