(dp0
I1
(lp1
I164
asI2
(lp2
I266
asI3
(lp3
I315
asI4
(lp4
I96
aI46
aI92
aI36
aI85
aI163
aI90
aI77
aI30
aI95
asI5
(lp5
I351
asI6
(lp6
I248
asI7
(lp7
I312
asI8
(lp8
I317
asI9
(lp9
I315
asI10
(lp10
I69
asI11
(lp11
I249
asI12
(lp12
I151
asI13
(lp13
I50
asI14
(lp14
I163
aI139
asI15
(lp15
I153
asI16
(lp16
I254
asI17
(lp17
I315
asI18
(lp18
I253
aI277
aI276
asI19
(lp19
I139
asI20
(lp20
I162
asI21
(lp21
I287
asI22
(lp22
I281
asI23
(lp23
I179
asI24
(lp24
I191
asI25
(lp25
I185
asI26
(lp26
I87
aI186
aI139
aI76
aI173
aI72
aI81
aI175
aI179
aI80
aI174
aI168
aI73
aI88
aI176
aI71
aI86
aI185
aI91
as.