(dp0
I7
(lp1
I15
asI8
(lp2
I15
asI9
(lp3
I15
aI16
asI10
(lp4
I2
aI5
aI15
aI16
asI11
(lp5
I15
aI16
asI12
(lp6
I15
aI16
asI13
(lp7
I5
aI15
asI14
(lp8
I15
asI15
(lp9
I5
aI15
asI16
(lp10
I15
asI17
(lp11
I5
aI13
asI18
(lp12
I5
aI13
asI19
(lp13
I5
aI13
asI20
(lp14
I15
aI16
asI21
(lp15
I15
aI16
asI22
(lp16
I15
aI16
asI23
(lp17
I5
aI15
asI24
(lp18
I15
asI25
(lp19
I5
aI15
asI26
(lp20
I15
asI27
(lp21
I5
aI15
asI28
(lp22
I5
aI15
asI29
(lp23
I5
aI15
asI30
(lp24
I5
aI15
asI31
(lp25
I5
aI15
asI32
(lp26
I5
aI15
asI33
(lp27
I5
aI15
asI34
(lp28
I5
aI15
asI35
(lp29
I15
asI38
(lp30
I15
asI39
(lp31
I15
aI16
asI40
(lp32
I15
asI41
(lp33
I15
asI43
(lp34
I15
asI44
(lp35
I14
asI45
(lp36
I15
asI46
(lp37
I15
asI47
(lp38
I15
asI48
(lp39
I15
aI16
asI49
(lp40
I15
asI50
(lp41
I15
aI16
asI51
(lp42
I16
asI52
(lp43
I5
aI15
asI53
(lp44
I15
asI54
(lp45
I15
aI16
asI56
(lp46
I15
asI57
(lp47
I15
asI58
(lp48
I15
asI59
(lp49
I4
aI15
asI60
(lp50
I15
asI61
(lp51
I15
asI62
(lp52
I15
asI63
(lp53
I15
asI64
(lp54
I15
asI65
(lp55
I15
asI66
(lp56
I15
asI67
(lp57
I15
asI68
(lp58
I15
asI69
(lp59
I15
asI70
(lp60
I15
asI71
(lp61
I15
asI72
(lp62
I15
asI73
(lp63
I15
asI74
(lp64
I15
asI75
(lp65
I15
asI76
(lp66
I15
asI77
(lp67
I15
asI78
(lp68
I15
asI79
(lp69
I4
aI15
asI80
(lp70
I15
asI81
(lp71
I15
asI82
(lp72
I15
asI83
(lp73
I15
asI84
(lp74
I15
asI85
(lp75
I15
asI86
(lp76
I15
asI87
(lp77
I15
asI88
(lp78
I15
asI89
(lp79
I15
asI90
(lp80
I15
asI91
(lp81
I15
asI92
(lp82
I15
asI93
(lp83
I15
asI94
(lp84
I15
asI95
(lp85
I15
asI96
(lp86
I15
asI97
(lp87
I15
asI98
(lp88
I15
asI99
(lp89
I4
aI15
asI100
(lp90
I15
asI101
(lp91
I15
asI102
(lp92
I15
asI103
(lp93
I15
asI104
(lp94
I15
asI105
(lp95
I15
asI106
(lp96
I15
asI107
(lp97
I15
asI108
(lp98
I15
asI109
(lp99
I15
asI110
(lp100
I15
asI111
(lp101
I15
asI112
(lp102
I15
asI113
(lp103
I15
asI114
(lp104
I15
asI115
(lp105
I15
asI116
(lp106
I15
asI117
(lp107
I15
asI118
(lp108
I15
asI119
(lp109
I4
aI15
asI120
(lp110
I15
asI121
(lp111
I15
asI122
(lp112
I15
asI123
(lp113
I15
asI124
(lp114
I15
asI125
(lp115
I15
asI126
(lp116
I15
asI127
(lp117
I15
asI128
(lp118
I15
asI129
(lp119
I15
asI130
(lp120
I15
asI131
(lp121
I15
asI132
(lp122
I15
asI133
(lp123
I15
asI134
(lp124
I15
asI135
(lp125
I15
asI136
(lp126
I15
asI137
(lp127
I15
asI138
(lp128
I15
asI139
(lp129
I4
aI15
asI140
(lp130
I15
asI141
(lp131
I15
asI142
(lp132
I15
asI143
(lp133
I15
asI144
(lp134
I15
asI145
(lp135
I15
asI146
(lp136
I15
asI147
(lp137
I15
asI148
(lp138
I15
asI149
(lp139
I15
asI150
(lp140
I15
asI151
(lp141
I15
asI152
(lp142
I15
asI153
(lp143
I15
asI154
(lp144
I15
asI155
(lp145
I15
asI156
(lp146
I15
asI157
(lp147
I15
asI158
(lp148
I15
asI159
(lp149
I4
aI15
asI160
(lp150
I15
asI161
(lp151
I15
asI162
(lp152
I15
asI163
(lp153
I15
asI164
(lp154
I15
asI165
(lp155
I15
asI166
(lp156
I15
asI167
(lp157
I15
asI168
(lp158
I15
asI169
(lp159
I15
asI170
(lp160
I15
asI171
(lp161
I15
asI172
(lp162
I15
asI173
(lp163
I15
asI174
(lp164
I15
asI175
(lp165
I15
asI176
(lp166
I15
asI177
(lp167
I15
asI178
(lp168
I15
asI179
(lp169
I4
aI15
asI180
(lp170
I15
asI181
(lp171
I15
asI182
(lp172
I15
asI183
(lp173
I15
asI184
(lp174
I15
asI185
(lp175
I15
asI186
(lp176
I15
asI187
(lp177
I15
asI188
(lp178
I15
asI189
(lp179
I15
asI190
(lp180
I15
asI191
(lp181
I15
asI192
(lp182
I15
asI193
(lp183
I15
asI194
(lp184
I15
asI195
(lp185
I15
asI196
(lp186
I15
asI197
(lp187
I15
asI198
(lp188
I15
asI199
(lp189
I4
aI15
asI200
(lp190
I15
asI201
(lp191
I15
asI202
(lp192
I15
asI203
(lp193
I15
asI204
(lp194
I15
asI205
(lp195
I15
asI206
(lp196
I15
asI207
(lp197
I15
asI208
(lp198
I15
asI209
(lp199
I15
asI210
(lp200
I15
asI211
(lp201
I15
asI212
(lp202
I15
asI213
(lp203
I15
asI214
(lp204
I15
as.