(dp0
I1
(lp1
I2
aI3
asI2
(lp2
I2
aI3
asI3
(lp3
I2
aI3
asI4
(lp4
I2
aI3
asI5
(lp5
I2
aI3
asI6
(lp6
I2
aI3
asI7
(lp7
I2
aI3
asI8
(lp8
I2
aI3
asI9
(lp9
I2
aI3
asI10
(lp10
I2
aI3
asI11
(lp11
I2
aI3
asI12
(lp12
I2
aI3
asI13
(lp13
I2
aI3
asI14
(lp14
I2
aI3
asI15
(lp15
I2
aI3
asI16
(lp16
I2
aI3
asI17
(lp17
I2
aI3
asI18
(lp18
I2
aI3
asI19
(lp19
I2
aI3
asI20
(lp20
I1
aI2
aI3
asI21
(lp21
I2
aI3
asI22
(lp22
I2
aI3
asI23
(lp23
I2
aI3
asI24
(lp24
I2
aI3
asI25
(lp25
I2
aI3
asI26
(lp26
I2
aI3
asI27
(lp27
I2
aI3
asI28
(lp28
I2
aI3
aI12
asI29
(lp29
I2
asI30
(lp30
I2
aI3
aI12
asI31
(lp31
I2
aI3
aI16
asI32
(lp32
I2
aI3
aI16
asI33
(lp33
I2
aI3
aI16
asI34
(lp34
I2
aI3
aI16
asI35
(lp35
I2
aI3
aI16
asI36
(lp36
I2
aI3
aI16
asI37
(lp37
I2
aI3
aI16
asI38
(lp38
I2
aI3
aI16
asI39
(lp39
I2
aI3
aI16
asI40
(lp40
I2
aI3
aI16
asI41
(lp41
I2
aI3
aI16
asI42
(lp42
I2
aI3
asI43
(lp43
I2
aI3
aI16
asI44
(lp44
I2
aI3
aI16
asI45
(lp45
I2
aI3
aI16
asI46
(lp46
I2
aI3
aI16
asI47
(lp47
I2
aI3
aI16
asI48
(lp48
I2
aI3
aI16
asI49
(lp49
I2
aI3
aI16
asI50
(lp50
I2
aI3
aI16
asI51
(lp51
I2
aI3
aI16
asI52
(lp52
I2
aI3
aI16
asI53
(lp53
I2
aI3
aI16
asI54
(lp54
I2
aI3
aI16
asI55
(lp55
I2
aI3
aI16
asI56
(lp56
I2
aI3
asI57
(lp57
I2
aI3
aI16
asI58
(lp58
I2
aI3
aI16
asI59
(lp59
I2
aI3
aI16
asI60
(lp60
I2
aI3
aI16
asI61
(lp61
I2
aI3
aI16
asI62
(lp62
I2
aI3
aI16
asI63
(lp63
I2
aI3
aI16
asI64
(lp64
I2
aI3
aI16
asI65
(lp65
I2
aI3
aI16
asI66
(lp66
I2
aI3
aI16
asI67
(lp67
I2
aI3
aI10
aI12
aI16
asI68
(lp68
I2
aI3
aI10
aI12
aI16
asI69
(lp69
I2
aI3
aI10
aI12
aI16
asI70
(lp70
I2
aI3
aI10
aI12
asI71
(lp71
I2
aI3
aI10
aI12
aI16
asI72
(lp72
I2
aI3
aI10
aI12
aI16
asI73
(lp73
I2
aI3
aI10
aI12
aI16
asI74
(lp74
I2
aI3
aI10
aI12
aI16
asI75
(lp75
I2
aI3
aI10
aI12
aI16
asI76
(lp76
I2
aI3
aI10
aI12
aI16
asI77
(lp77
I2
aI3
aI10
aI12
aI16
asI78
(lp78
I2
aI3
aI10
aI12
aI16
asI79
(lp79
I2
aI3
aI10
aI12
aI16
asI80
(lp80
I2
aI3
aI10
aI12
aI16
asI81
(lp81
I2
aI3
aI16
asI82
(lp82
I2
aI3
asI83
(lp83
I2
aI3
aI16
asI84
(lp84
I2
aI3
aI16
asI85
(lp85
I2
aI3
aI16
asI86
(lp86
I2
aI3
aI16
asI87
(lp87
I2
aI3
aI16
asI88
(lp88
I2
aI3
asI89
(lp89
I2
aI3
aI16
asI90
(lp90
I2
aI3
aI16
asI91
(lp91
I2
aI3
aI16
asI92
(lp92
I2
aI3
aI16
asI93
(lp93
I2
aI3
aI16
asI94
(lp94
I2
aI3
aI16
asI95
(lp95
I2
aI3
aI16
asI96
(lp96
I2
aI3
aI16
asI97
(lp97
I2
aI3
aI16
asI98
(lp98
I2
aI3
aI16
asI99
(lp99
I2
aI3
aI16
asI100
(lp100
I2
aI3
aI16
asI101
(lp101
I2
aI3
aI16
asI102
(lp102
I2
aI3
asI103
(lp103
I2
aI3
aI16
asI104
(lp104
I2
aI3
aI16
asI105
(lp105
I2
aI3
aI16
asI106
(lp106
I2
aI3
aI16
asI107
(lp107
I2
aI3
aI16
asI108
(lp108
I2
aI3
aI16
asI109
(lp109
I2
aI3
aI16
asI110
(lp110
I2
aI3
aI16
asI111
(lp111
I2
aI3
aI16
asI112
(lp112
I2
aI3
aI16
asI113
(lp113
I2
aI3
aI10
aI12
aI16
asI114
(lp114
I2
aI3
aI10
aI12
aI16
asI115
(lp115
I2
aI3
aI10
aI12
aI16
asI116
(lp116
I2
aI3
aI10
aI12
asI117
(lp117
I2
aI3
aI10
aI12
aI16
asI118
(lp118
I2
aI3
aI10
aI12
aI16
asI119
(lp119
I2
aI3
aI10
aI12
aI16
asI120
(lp120
I2
aI3
aI10
aI12
aI16
asI121
(lp121
I2
aI3
aI10
aI12
aI16
asI122
(lp122
I2
aI3
aI10
aI12
aI16
asI123
(lp123
I2
aI3
aI10
aI12
aI16
asI124
(lp124
I2
aI3
aI10
aI12
aI16
asI125
(lp125
I2
aI3
aI10
aI12
aI16
asI126
(lp126
I2
aI3
aI10
aI12
aI16
asI127
(lp127
I2
aI3
aI16
asI128
(lp128
I2
aI3
asI129
(lp129
I2
aI3
aI16
asI130
(lp130
I2
aI3
aI16
asI131
(lp131
I2
aI3
aI16
asI132
(lp132
I2
aI3
aI16
asI133
(lp133
I2
aI3
aI16
asI134
(lp134
I2
aI3
aI16
asI135
(lp135
I2
aI3
aI16
asI136
(lp136
I2
aI3
aI16
asI137
(lp137
I2
aI3
aI16
asI138
(lp138
I2
aI3
aI16
asI139
(lp139
I2
aI3
aI16
asI140
(lp140
I2
aI3
aI16
asI141
(lp141
I2
aI3
aI16
asI142
(lp142
I2
aI3
aI16
asI143
(lp143
I2
aI3
aI16
asI144
(lp144
I2
aI3
aI16
asI145
(lp145
I2
aI3
aI16
asI146
(lp146
I2
aI3
aI16
asI147
(lp147
I2
aI3
aI16
asI148
(lp148
I2
aI3
aI16
asI149
(lp149
I2
aI3
aI16
asI150
(lp150
I2
aI3
aI16
asI151
(lp151
I2
aI3
aI16
asI152
(lp152
I2
aI3
aI16
asI153
(lp153
I2
aI3
aI16
asI154
(lp154
I2
aI3
aI16
asI155
(lp155
I2
aI3
aI16
asI156
(lp156
I2
aI3
aI16
asI157
(lp157
I2
aI3
aI16
asI158
(lp158
I2
aI3
aI16
asI159
(lp159
I2
aI3
aI16
asI160
(lp160
I2
aI3
aI16
asI161
(lp161
I2
aI3
aI16
asI162
(lp162
I2
aI3
aI16
asI163
(lp163
I2
aI3
aI10
aI12
aI16
aI18
asI164
(lp164
I2
aI3
aI10
aI12
aI16
asI165
(lp165
I2
aI3
aI10
aI12
aI16
asI166
(lp166
I2
aI3
aI10
aI12
aI16
asI167
(lp167
I2
aI3
aI10
aI12
aI16
asI168
(lp168
I2
aI3
aI10
aI12
aI16
asI169
(lp169
I2
aI3
aI10
aI12
aI16
asI170
(lp170
I2
aI3
aI10
aI12
aI16
asI171
(lp171
I2
aI3
aI10
aI12
aI16
asI172
(lp172
I2
aI3
aI10
aI12
aI16
asI173
(lp173
I2
aI3
aI10
aI12
aI16
asI174
(lp174
I2
aI3
aI10
aI12
aI16
asI175
(lp175
I2
aI3
aI10
aI12
aI16
asI176
(lp176
I2
aI3
aI10
aI12
aI16
asI177
(lp177
I2
aI3
aI16
asI178
(lp178
I2
aI3
aI16
asI179
(lp179
I2
aI3
aI16
asI180
(lp180
I2
aI3
aI16
asI181
(lp181
I2
aI3
aI16
asI182
(lp182
I2
aI3
aI16
asI183
(lp183
I2
aI3
aI16
asI184
(lp184
I2
aI3
aI16
asI185
(lp185
I2
aI3
aI16
asI186
(lp186
I2
aI3
aI16
asI187
(lp187
I2
aI3
aI16
asI188
(lp188
I2
aI3
aI16
asI189
(lp189
I2
aI3
aI16
asI190
(lp190
I2
aI3
aI16
asI191
(lp191
I2
aI3
aI16
asI192
(lp192
I2
aI3
aI16
asI193
(lp193
I2
aI3
aI16
asI194
(lp194
I2
aI3
aI16
asI195
(lp195
I2
aI3
aI16
asI196
(lp196
I2
aI3
aI16
asI197
(lp197
I2
aI3
aI16
asI198
(lp198
I2
aI3
aI16
asI199
(lp199
I2
aI3
aI16
asI200
(lp200
I2
aI3
aI16
asI201
(lp201
I2
aI3
aI16
asI202
(lp202
I2
aI3
aI16
asI203
(lp203
I2
aI3
aI16
asI204
(lp204
I2
aI3
aI16
asI205
(lp205
I2
aI3
aI10
aI12
aI16
aI18
asI206
(lp206
I2
aI3
aI10
aI12
aI16
aI18
asI207
(lp207
I2
aI3
aI10
aI12
aI16
asI208
(lp208
I2
aI3
aI10
aI12
aI16
asI209
(lp209
I2
aI3
aI10
aI12
aI16
asI210
(lp210
I2
aI3
aI10
aI12
aI16
asI211
(lp211
I2
aI3
aI10
aI12
aI16
asI212
(lp212
I2
aI3
aI10
aI12
aI16
asI213
(lp213
I2
aI3
aI10
aI12
aI16
asI214
(lp214
I2
aI3
aI10
aI12
aI16
asI215
(lp215
I2
aI3
aI10
aI12
aI16
asI216
(lp216
I2
aI3
aI10
aI12
aI16
asI217
(lp217
I2
aI3
aI10
aI12
aI16
asI218
(lp218
I2
aI3
aI10
aI12
aI16
asI219
(lp219
I2
aI3
aI16
asI220
(lp220
I2
aI3
aI16
asI221
(lp221
I2
aI3
aI16
asI222
(lp222
I2
aI3
aI16
asI223
(lp223
I2
aI3
aI16
asI224
(lp224
I2
aI3
aI16
asI225
(lp225
I2
aI3
aI16
asI226
(lp226
I2
aI3
aI16
asI227
(lp227
I2
aI3
aI16
asI228
(lp228
I2
aI3
aI16
asI229
(lp229
I2
aI3
aI16
asI230
(lp230
I2
aI3
aI16
asI231
(lp231
I2
aI3
aI16
asI232
(lp232
I2
aI3
aI16
asI233
(lp233
I2
aI3
aI16
asI234
(lp234
I2
aI3
aI16
asI235
(lp235
I2
aI3
aI16
asI236
(lp236
I2
aI3
aI16
asI237
(lp237
I2
aI3
aI16
asI238
(lp238
I2
aI3
aI16
asI239
(lp239
I2
aI3
aI16
asI240
(lp240
I2
aI3
aI16
asI241
(lp241
I2
aI3
aI16
asI242
(lp242
I2
aI3
aI16
asI243
(lp243
I2
aI3
aI16
asI244
(lp244
I2
aI3
aI16
asI245
(lp245
I2
aI3
aI16
asI246
(lp246
I2
aI3
aI16
asI247
(lp247
I2
aI3
aI10
aI12
aI16
asI248
(lp248
I2
aI3
aI10
aI12
aI16
aI18
asI249
(lp249
I2
aI3
aI10
aI12
aI16
asI250
(lp250
I2
aI3
aI10
aI12
aI16
asI251
(lp251
I2
aI3
aI10
aI12
aI16
asI252
(lp252
I2
aI3
aI10
aI12
aI16
asI253
(lp253
I2
aI3
aI10
aI12
aI16
asI254
(lp254
I2
aI3
aI10
aI12
aI16
asI255
(lp255
I2
aI3
aI10
aI12
aI16
asI256
(lp256
I2
aI3
aI10
aI12
aI16
asI257
(lp257
I2
aI3
aI10
aI12
aI16
asI258
(lp258
I2
aI3
aI10
aI12
aI16
asI259
(lp259
I2
aI3
aI10
aI12
aI16
asI260
(lp260
I2
aI3
aI10
aI12
aI16
asI261
(lp261
I2
aI3
asI262
(lp262
I2
aI3
aI16
asI263
(lp263
I2
aI3
aI16
asI264
(lp264
I2
aI3
aI16
asI265
(lp265
I2
aI3
aI16
asI266
(lp266
I2
aI3
aI16
asI267
(lp267
I2
aI3
aI16
asI268
(lp268
I2
aI3
aI16
asI269
(lp269
I2
aI3
aI16
asI270
(lp270
I2
aI3
aI16
asI271
(lp271
I2
aI3
aI16
asI272
(lp272
I1
aI2
aI3
aI16
asI273
(lp273
I2
aI3
aI16
asI274
(lp274
I1
aI2
aI3
aI16
asI275
(lp275
I2
aI3
aI16
asI276
(lp276
I2
aI3
aI16
asI277
(lp277
I2
aI3
aI16
asI278
(lp278
I2
aI3
asI279
(lp279
I2
aI3
aI16
asI280
(lp280
I2
aI3
aI16
asI281
(lp281
I2
aI3
aI16
asI282
(lp282
I2
aI3
aI16
asI283
(lp283
I2
aI3
aI16
asI284
(lp284
I2
aI3
aI16
asI285
(lp285
I2
aI3
aI16
asI286
(lp286
I2
aI3
aI16
asI287
(lp287
I2
aI3
aI16
asI288
(lp288
I2
aI3
aI16
asI289
(lp289
I2
aI3
aI16
asI290
(lp290
I2
aI3
asI291
(lp291
I2
aI3
aI16
asI292
(lp292
I2
aI3
aI16
asI293
(lp293
I2
aI3
aI16
asI294
(lp294
I2
aI3
aI16
asI295
(lp295
I2
aI3
aI16
asI296
(lp296
I2
aI3
aI16
asI297
(lp297
I2
aI3
aI16
asI298
(lp298
I2
aI3
aI16
asI299
(lp299
I2
aI3
aI12
aI16
asI300
(lp300
I2
aI3
aI12
aI16
asI301
(lp301
I2
aI3
aI12
aI16
asI302
(lp302
I2
aI3
aI12
asI303
(lp303
I2
aI3
aI12
aI16
asI304
(lp304
I2
aI3
aI12
aI16
asI305
(lp305
I2
aI3
aI12
aI16
asI306
(lp306
I2
aI3
aI12
aI16
asI307
(lp307
I2
aI3
aI12
aI16
asI308
(lp308
I2
aI3
aI12
aI16
asI309
(lp309
I2
aI3
aI12
aI16
asI310
(lp310
I2
aI3
aI12
aI16
asI311
(lp311
I2
aI3
aI16
asI312
(lp312
I2
aI3
aI16
asI313
(lp313
I2
aI3
asI314
(lp314
I2
aI3
aI16
asI315
(lp315
I2
aI3
aI16
asI316
(lp316
I2
aI3
aI16
asI317
(lp317
I2
aI3
aI16
asI318
(lp318
I2
aI3
aI16
asI319
(lp319
I2
aI3
asI320
(lp320
I2
aI3
aI16
asI321
(lp321
I2
aI3
aI16
asI322
(lp322
I2
aI3
aI16
asI323
(lp323
I2
aI3
aI16
asI324
(lp324
I2
aI3
aI16
asI325
(lp325
I2
aI3
aI16
asI326
(lp326
I2
aI3
aI16
asI327
(lp327
I2
aI3
aI16
asI328
(lp328
I2
aI3
aI16
asI329
(lp329
I2
aI3
aI16
asI330
(lp330
I2
aI3
aI16
asI331
(lp331
I2
aI3
asI332
(lp332
I2
aI3
aI16
asI333
(lp333
I2
aI3
aI16
asI334
(lp334
I2
aI3
aI16
asI335
(lp335
I2
aI3
aI16
asI336
(lp336
I2
aI3
aI16
asI337
(lp337
I2
aI3
aI16
asI338
(lp338
I2
aI3
aI16
asI339
(lp339
I2
aI3
aI16
asI340
(lp340
I2
aI3
aI12
aI16
asI341
(lp341
I2
aI3
aI12
aI16
asI342
(lp342
I2
aI3
aI12
aI16
asI343
(lp343
I2
aI3
aI12
asI344
(lp344
I2
aI3
aI12
aI16
asI345
(lp345
I2
aI3
aI12
aI16
asI346
(lp346
I2
aI3
aI12
aI16
asI347
(lp347
I2
aI3
aI12
aI16
asI348
(lp348
I2
aI3
aI12
aI16
asI349
(lp349
I2
aI3
aI12
aI16
asI350
(lp350
I2
aI3
aI12
aI16
asI351
(lp351
I2
aI3
aI12
aI16
asI352
(lp352
I2
aI3
aI16
asI353
(lp353
I2
aI3
aI16
asI354
(lp354
I2
aI3
asI355
(lp355
I2
aI3
aI16
asI356
(lp356
I2
aI3
aI16
asI357
(lp357
I2
aI3
aI16
asI358
(lp358
I2
aI3
aI16
asI359
(lp359
I2
aI3
aI16
asI360
(lp360
I2
aI3
aI16
asI361
(lp361
I2
aI3
aI16
asI362
(lp362
I2
aI3
aI16
asI363
(lp363
I2
aI3
aI16
asI364
(lp364
I2
aI3
aI16
asI365
(lp365
I2
aI3
aI16
asI366
(lp366
I2
aI3
aI16
asI367
(lp367
I2
aI3
aI16
asI368
(lp368
I2
aI3
aI16
asI369
(lp369
I2
aI3
aI16
asI370
(lp370
I2
aI3
aI16
asI371
(lp371
I2
aI3
aI16
asI372
(lp372
I2
aI3
aI16
asI373
(lp373
I2
aI3
aI16
asI374
(lp374
I2
aI3
aI16
asI375
(lp375
I2
aI3
aI16
asI376
(lp376
I2
aI3
aI16
asI377
(lp377
I2
aI3
aI16
asI378
(lp378
I2
aI3
aI16
asI379
(lp379
I2
aI3
aI16
asI380
(lp380
I2
aI3
aI16
asI381
(lp381
I2
aI3
aI16
asI382
(lp382
I2
aI3
aI16
asI383
(lp383
I2
aI3
aI16
asI384
(lp384
I2
aI3
aI16
asI385
(lp385
I2
aI3
aI16
asI386
(lp386
I2
aI3
aI12
aI16
aI18
asI387
(lp387
I2
aI3
aI12
aI16
asI388
(lp388
I2
aI3
aI12
aI16
asI389
(lp389
I2
aI3
aI12
aI16
asI390
(lp390
I2
aI3
aI12
aI16
asI391
(lp391
I2
aI3
aI12
aI16
asI392
(lp392
I2
aI3
aI12
aI16
asI393
(lp393
I2
aI3
aI12
aI16
asI394
(lp394
I2
aI3
aI12
aI16
asI395
(lp395
I2
aI3
aI12
aI16
asI396
(lp396
I2
aI3
aI12
aI16
asI397
(lp397
I2
aI3
aI12
aI16
asI398
(lp398
I2
aI3
aI16
asI399
(lp399
I2
aI3
aI16
asI400
(lp400
I2
aI3
aI16
asI401
(lp401
I2
aI3
aI16
asI402
(lp402
I2
aI3
aI16
asI403
(lp403
I2
aI3
aI16
asI404
(lp404
I2
aI3
aI16
asI405
(lp405
I2
aI3
aI16
asI406
(lp406
I2
aI3
aI16
asI407
(lp407
I2
aI3
aI16
asI408
(lp408
I2
aI3
aI16
asI409
(lp409
I2
aI3
aI16
asI410
(lp410
I2
aI3
aI16
asI411
(lp411
I2
aI3
aI16
asI412
(lp412
I2
aI3
aI16
asI413
(lp413
I2
aI3
aI16
asI414
(lp414
I2
aI3
aI16
asI415
(lp415
I2
aI3
aI16
asI416
(lp416
I2
aI3
aI16
asI417
(lp417
I2
aI3
aI16
asI418
(lp418
I2
aI3
aI16
asI419
(lp419
I2
aI3
aI16
asI420
(lp420
I2
aI3
aI16
asI421
(lp421
I2
aI3
aI16
asI422
(lp422
I2
aI3
aI12
aI16
aI18
asI423
(lp423
I2
aI3
aI12
aI16
aI18
asI424
(lp424
I2
aI3
aI12
aI16
aI18
asI425
(lp425
I2
aI3
aI12
aI16
asI426
(lp426
I2
aI3
aI12
aI16
asI427
(lp427
I2
aI3
aI12
aI16
asI428
(lp428
I2
aI3
aI12
aI16
asI429
(lp429
I2
aI3
aI12
aI16
asI430
(lp430
I2
aI3
aI12
aI16
asI431
(lp431
I2
aI3
aI12
aI16
asI432
(lp432
I2
aI3
aI12
aI16
asI433
(lp433
I2
aI3
aI12
aI16
asI434
(lp434
I2
aI3
aI16
asI435
(lp435
I2
aI3
aI16
asI436
(lp436
I2
aI3
aI16
asI437
(lp437
I2
aI3
aI16
asI438
(lp438
I2
aI3
aI16
asI439
(lp439
I2
aI3
aI16
asI440
(lp440
I2
aI3
aI16
asI441
(lp441
I2
aI3
aI16
asI442
(lp442
I2
aI3
aI16
asI443
(lp443
I2
aI3
aI16
asI444
(lp444
I2
aI3
aI16
asI445
(lp445
I2
aI3
aI16
asI446
(lp446
I2
aI3
aI16
asI447
(lp447
I2
aI3
aI16
asI448
(lp448
I2
aI3
aI16
asI449
(lp449
I2
aI3
aI16
asI450
(lp450
I2
aI3
aI16
asI451
(lp451
I2
aI3
aI16
asI452
(lp452
I2
aI3
aI16
asI453
(lp453
I2
aI3
aI16
asI454
(lp454
I2
aI3
aI16
asI455
(lp455
I2
aI3
aI16
asI456
(lp456
I2
aI3
aI16
asI457
(lp457
I2
aI3
aI16
asI458
(lp458
I2
aI3
aI12
aI16
asI459
(lp459
I2
aI3
aI12
aI16
aI18
asI460
(lp460
I2
aI3
aI12
aI16
aI18
asI461
(lp461
I2
aI3
aI12
aI16
asI462
(lp462
I2
aI3
aI12
aI16
asI463
(lp463
I2
aI3
aI12
aI16
asI464
(lp464
I2
aI3
aI12
aI16
asI465
(lp465
I2
aI3
aI12
aI16
asI466
(lp466
I2
aI3
aI12
aI16
asI467
(lp467
I2
aI3
aI12
aI16
asI468
(lp468
I2
aI3
aI12
aI16
asI469
(lp469
I2
aI3
aI12
aI16
asI470
(lp470
I2
aI3
asI471
(lp471
I2
aI3
asI472
(lp472
I2
asI473
(lp473
I2
asI474
(lp474
I2
aI3
asI475
(lp475
I2
aI3
asI476
(lp476
I2
aI3
asI477
(lp477
I2
aI3
asI478
(lp478
I2
aI3
asI479
(lp479
I2
aI3
asI480
(lp480
I2
asI481
(lp481
I2
aI3
asI482
(lp482
I2
asI484
(lp483
I2
aI3
asI485
(lp484
I2
aI3
asI486
(lp485
I2
aI3
asI487
(lp486
I2
aI3
asI488
(lp487
I2
aI3
asI489
(lp488
I2
asI490
(lp489
I2
aI3
asI491
(lp490
I2
aI3
asI493
(lp491
I2
asI494
(lp492
I2
aI3
asI495
(lp493
I2
aI3
asI497
(lp494
I2
aI8
asI498
(lp495
I2
aI8
asI500
(lp496
I2
aI3
asI501
(lp497
I2
aI3
asI503
(lp498
I2
aI3
asI504
(lp499
I2
aI3
asI505
(lp500
I2
aI8
asI506
(lp501
I2
aI8
asI507
(lp502
I2
asI508
(lp503
I2
aI8
asI509
(lp504
I2
aI3
asI510
(lp505
I2
aI3
asI511
(lp506
I2
asI512
(lp507
I2
aI8
asI513
(lp508
I2
aI3
asI514
(lp509
I2
aI3
asI515
(lp510
I2
aI8
asI516
(lp511
I2
aI3
aI8
asI517
(lp512
I2
aI3
asI518
(lp513
I2
aI3
asI519
(lp514
I2
aI8
asI520
(lp515
I2
aI3
aI8
asI521
(lp516
I2
aI3
asI522
(lp517
I2
aI3
asI523
(lp518
I2
aI3
asI524
(lp519
I2
aI3
asI525
(lp520
I2
aI3
asI526
(lp521
I2
aI3
aI16
asI527
(lp522
I2
aI3
asI528
(lp523
I2
aI3
asI529
(lp524
I2
aI3
asI530
(lp525
I2
aI3
aI16
asI531
(lp526
I2
aI3
asI532
(lp527
I2
aI3
asI533
(lp528
I2
aI3
asI534
(lp529
I2
aI3
aI16
asI535
(lp530
I2
aI3
asI536
(lp531
I2
aI3
asI537
(lp532
I2
aI3
asI538
(lp533
I2
aI3
aI16
asI539
(lp534
I2
aI3
asI540
(lp535
I2
aI3
asI541
(lp536
I2
aI3
asI542
(lp537
I2
aI3
aI16
asI543
(lp538
I2
aI3
asI544
(lp539
I2
aI3
asI545
(lp540
I2
aI3
asI546
(lp541
I2
aI3
aI16
asI547
(lp542
I2
aI3
asI548
(lp543
I2
aI3
asI549
(lp544
I2
aI3
asI550
(lp545
I2
aI3
aI16
asI551
(lp546
I2
aI3
asI552
(lp547
I2
aI3
asI553
(lp548
I2
aI3
asI554
(lp549
I2
aI3
aI16
asI555
(lp550
I2
aI8
asI556
(lp551
I2
aI8
asI557
(lp552
I2
asI558
(lp553
I2
aI3
asI559
(lp554
I2
aI3
asI560
(lp555
I2
asI561
(lp556
I2
aI3
asI562
(lp557
I2
aI3
aI16
asI563
(lp558
I2
asI564
(lp559
I2
aI3
asI565
(lp560
I2
aI3
asI566
(lp561
I2
asI567
(lp562
I2
aI3
asI568
(lp563
I2
aI3
aI16
asI569
(lp564
I2
aI8
asI570
(lp565
I2
aI8
asI571
(lp566
I2
asI572
(lp567
I2
aI3
asI573
(lp568
I2
aI3
asI574
(lp569
I2
asI575
(lp570
I2
aI3
asI576
(lp571
I2
aI3
aI16
asI577
(lp572
I2
asI578
(lp573
I2
aI3
asI579
(lp574
I2
aI3
asI580
(lp575
I2
asI581
(lp576
I2
aI3
asI582
(lp577
I2
aI3
aI16
asI583
(lp578
I2
aI8
asI584
(lp579
I2
aI3
aI8
asI585
(lp580
I2
asI586
(lp581
I2
aI3
asI587
(lp582
I2
aI3
asI588
(lp583
I2
asI589
(lp584
I2
aI3
asI590
(lp585
I2
aI3
aI16
asI591
(lp586
I2
asI592
(lp587
I2
aI3
asI593
(lp588
I2
aI3
asI594
(lp589
I2
asI595
(lp590
I2
aI3
asI596
(lp591
I2
aI3
aI16
asI597
(lp592
I2
aI8
asI598
(lp593
I2
aI3
aI8
asI599
(lp594
I2
asI600
(lp595
I2
aI3
asI601
(lp596
I2
aI3
asI602
(lp597
I2
asI603
(lp598
I2
aI3
asI604
(lp599
I2
aI3
aI16
asI605
(lp600
I2
asI606
(lp601
I2
aI3
asI607
(lp602
I2
aI3
asI608
(lp603
I2
asI609
(lp604
I2
aI3
asI610
(lp605
I2
aI3
aI16
asI611
(lp606
I2
aI3
asI612
(lp607
I2
aI3
asI613
(lp608
I2
aI3
asI614
(lp609
I2
aI3
asI615
(lp610
I2
aI3
asI616
(lp611
I2
aI3
asI617
(lp612
I2
aI3
asI618
(lp613
I2
aI3
asI619
(lp614
I2
aI3
asI620
(lp615
I2
aI3
asI622
(lp616
I2
aI3
asI632
(lp617
I2
asI633
(lp618
I2
asI634
(lp619
I2
aI3
asI635
(lp620
I2
aI3
asI636
(lp621
I2
aI3
asI637
(lp622
I2
aI8
asI638
(lp623
I2
aI8
asI639
(lp624
I2
asI640
(lp625
I2
aI3
asI641
(lp626
I2
aI3
aI16
asI642
(lp627
I2
asI643
(lp628
I2
asI644
(lp629
I2
asI647
(lp630
I2
asI648
(lp631
I2
aI3
asI649
(lp632
I2
asI650
(lp633
I2
aI3
asI651
(lp634
I2
aI3
asI652
(lp635
I2
aI3
asI659
(lp636
I2
aI3
asI660
(lp637
I2
aI3
asI661
(lp638
I2
aI3
asI665
(lp639
I2
aI3
asI666
(lp640
I2
aI3
asI667
(lp641
I2
aI3
asI689
(lp642
I2
aI3
asI690
(lp643
I2
asI691
(lp644
I2
asI692
(lp645
I1
aI2
aI3
asI693
(lp646
I2
aI3
asI694
(lp647
I2
asI707
(lp648
I2
aI3
asI718
(lp649
I2
aI3
aI12
asI719
(lp650
I2
aI3
aI12
asI720
(lp651
I2
aI3
aI12
asI721
(lp652
I2
aI3
aI12
asI722
(lp653
I2
aI3
aI12
asI723
(lp654
I2
aI3
aI12
asI727
(lp655
I2
aI3
asI728
(lp656
I2
aI3
asI729
(lp657
I2
aI3
asI733
(lp658
I2
aI3
asI734
(lp659
I2
aI3
asI735
(lp660
I2
aI3
asI736
(lp661
I2
aI3
asI737
(lp662
I2
aI3
asI738
(lp663
I2
aI3
asI747
(lp664
I2
aI3
asI748
(lp665
I2
asI749
(lp666
I2
asI750
(lp667
I2
aI3
asI751
(lp668
I2
aI3
asI752
(lp669
I2
asI753
(lp670
I2
aI3
asI754
(lp671
I2
asI755
(lp672
I2
asI756
(lp673
I1
aI2
aI3
asI757
(lp674
I2
aI3
asI758
(lp675
I2
asI759
(lp676
I2
asI760
(lp677
I2
asI761
(lp678
I2
asI762
(lp679
I2
aI3
asI763
(lp680
I2
asI764
(lp681
I2
asI765
(lp682
I2
aI3
asI766
(lp683
I2
asI767
(lp684
I2
aI3
asI768
(lp685
I2
aI3
asI769
(lp686
I2
aI3
asI770
(lp687
I2
asI771
(lp688
I2
aI3
asI772
(lp689
I2
aI3
asI773
(lp690
I2
aI3
asI774
(lp691
I2
aI3
asI775
(lp692
I2
asI776
(lp693
I2
asI777
(lp694
I2
aI3
asI778
(lp695
I2
asI779
(lp696
I2
asI780
(lp697
I2
aI12
asI781
(lp698
I2
aI12
asI782
(lp699
I2
aI12
asI783
(lp700
I2
aI3
asI784
(lp701
I2
asI785
(lp702
I2
asI786
(lp703
I2
aI3
asI787
(lp704
I2
asI788
(lp705
I2
asI789
(lp706
I2
aI3
asI790
(lp707
I2
aI3
asI791
(lp708
I2
asI792
(lp709
I2
aI3
asI793
(lp710
I2
asI794
(lp711
I2
aI3
asI795
(lp712
I2
aI3
asI796
(lp713
I2
aI3
asI797
(lp714
I2
aI3
asI804
(lp715
I2
aI3
asI805
(lp716
I2
aI3
asI806
(lp717
I2
aI3
asI807
(lp718
I2
aI3
aI12
asI808
(lp719
I2
aI12
asI809
(lp720
I2
aI12
as.